target datalayout = "e-m:e-p270:32:32-p271:32:32-p272:64:64-i64:64-i128:128-f80:128-n8:16:32:64-S128"
target triple = "x86_64-pc-linux-gnu"

%struct.RTMPPacket = type { i32, i32, i32, i32, i32, ptr, i32, i32, i32 }

; Function Attrs: nounwind uwtable
define i32 @ff_rtmp_check_alloc_array(ptr noundef %0, ptr noundef %1, i32 noundef %2) #0 {
  %4 = alloca i32, align 4
  %5 = alloca ptr, align 8
  %6 = alloca ptr, align 8
  %7 = alloca i32, align 4
  %8 = alloca i32, align 4
  %9 = alloca ptr, align 8
  %10 = alloca i32, align 4
  store ptr %0, ptr %5, align 8, !tbaa !28
  store ptr %1, ptr %6, align 8, !tbaa !26
  store i32 %2, ptr %7, align 4, !tbaa !10
  call void @llvm.lifetime.start.p0(i64 4, ptr %8) #13
  call void @llvm.lifetime.start.p0(i64 8, ptr %9) #13
  %11 = load i32, ptr %7, align 4, !tbaa !10
  %12 = load ptr, ptr %6, align 8, !tbaa !26
  %13 = load i32, ptr %12, align 4, !tbaa !10
  %14 = icmp slt i32 %11, %13
  br i1 %14, label %15, label %16

15:                                               ; preds = %3
  store i32 0, ptr %4, align 4
  store i32 1, ptr %10, align 4
  br label %43

16:                                               ; preds = %3
  %17 = load i32, ptr %7, align 4, !tbaa !10
  %18 = add nsw i32 %17, 16
  store i32 %18, ptr %8, align 4, !tbaa !10
  %19 = load ptr, ptr %5, align 8, !tbaa !28
  %20 = load ptr, ptr %19, align 8, !tbaa !30
  %21 = load i32, ptr %8, align 4, !tbaa !10
  %22 = sext i32 %21 to i64
  %23 = call ptr @av_realloc_array(ptr noundef %20, i64 noundef %22, i64 noundef 48)
  store ptr %23, ptr %9, align 8, !tbaa !30
  %24 = load ptr, ptr %9, align 8, !tbaa !30
  %25 = icmp ne ptr %24, null
  br i1 %25, label %27, label %26

26:                                               ; preds = %16
  store i32 -12, ptr %4, align 4
  store i32 1, ptr %10, align 4
  br label %43

27:                                               ; preds = %16
  %28 = load ptr, ptr %9, align 8, !tbaa !30
  %29 = load ptr, ptr %6, align 8, !tbaa !26
  %30 = load i32, ptr %29, align 4, !tbaa !10
  %31 = sext i32 %30 to i64
  %32 = getelementptr inbounds %struct.RTMPPacket, ptr %28, i64 %31
  %33 = load i32, ptr %8, align 4, !tbaa !10
  %34 = load ptr, ptr %6, align 8, !tbaa !26
  %35 = load i32, ptr %34, align 4, !tbaa !10
  %36 = sub nsw i32 %33, %35
  %37 = sext i32 %36 to i64
  %38 = mul i64 %37, 48
  call void @llvm.memset.p0.i64(ptr align 8 %32, i8 0, i64 %38, i1 false)
  %39 = load ptr, ptr %9, align 8, !tbaa !30
  %40 = load ptr, ptr %5, align 8, !tbaa !28
  store ptr %39, ptr %40, align 8, !tbaa !30
  %41 = load i32, ptr %8, align 4, !tbaa !10
  %42 = load ptr, ptr %6, align 8, !tbaa !26
  store i32 %41, ptr %42, align 4, !tbaa !10
  store i32 0, ptr %4, align 4
  store i32 1, ptr %10, align 4
  br label %43

43:                                               ; preds = %27, %26, %15
  call void @llvm.lifetime.end.p0(i64 8, ptr %9) #13
  call void @llvm.lifetime.end.p0(i64 4, ptr %8) #13
  %44 = load i32, ptr %4, align 4
  ret i32 %44
}