; Function Attrs: nounwind uwtable
define range(i32 -12, 1) i32 @ff_rtmp_check_alloc_array(ptr noundef captures(none) %0, ptr noundef captures(none) %1, i32 noundef %2) local_unnamed_addr #5 {
  %4 = load i32, ptr %1, align 4, !tbaa !15
  %5 = icmp slt i32 %2, %4
  br i1 %5, label %18, label %6

6:                                                ; preds = %3
  %7 = add nsw i32 %2, 16
  %8 = load ptr, ptr %0, align 8, !tbaa !17
  %9 = sext i32 %7 to i64
  %10 = tail call ptr @av_realloc_array(ptr noundef %8, i64 noundef %9, i64 noundef 48) #16
  %.not = icmp eq ptr %10, null
  br i1 %.not, label %18, label %11

11:                                               ; preds = %6
  %12 = load i32, ptr %1, align 4, !tbaa !15
  %13 = sext i32 %12 to i64
  %14 = getelementptr inbounds %struct.RTMPPacket, ptr %10, i64 %13
  %15 = sub nsw i32 %7, %12
  %16 = sext i32 %15 to i64
  %17 = mul nsw i64 %16, 48
  tail call void @llvm.memset.p0.i64(ptr nonnull align 8 %14, i8 0, i64 %17, i1 false)
  store ptr %10, ptr %0, align 8, !tbaa !17
  store i32 %7, ptr %1, align 4, !tbaa !15
  br label %18

18:                                               ; preds = %6, %3, %11
  %.0 = phi i32 [ 0, %11 ], [ 0, %3 ], [ -12, %6 ]
  ret i32 %.0
}